; Function Attrs: mustprogress nounwind uwtable
define noundef zeroext i1 @_ZN6Assimp13ObjFileParser12needsNewMeshERKNSt7__cxx1112basic_stringIcSt11char_traitsIcESaIcEEE(ptr nocapture noundef nonnull readonly align 8 dereferenceable(4176) %this, ptr noundef nonnull align 8 dereferenceable(32) %materialName) local_unnamed_addr #0 align 2 {
entry:
  %m_pModel = getelementptr inbounds i8, ptr %this, i64 16
  %0 = load ptr, ptr %m_pModel, align 8
  %mCurrentMesh = getelementptr inbounds i8, ptr %0, i64 296
  %1 = load ptr, ptr %mCurrentMesh, align 8
  %cmp = icmp eq ptr %1, null
  br i1 %cmp, label %return, label %if.end

if.end:                                           ; preds = %entry
  %call2 = tail call noundef i32 @_ZN6Assimp13ObjFileParser16getMaterialIndexERKNSt7__cxx1112basic_stringIcSt11char_traitsIcESaIcEEE(ptr noundef nonnull align 8 dereferenceable(4176) %this, ptr noundef nonnull align 8 dereferenceable(32) %materialName)
  %2 = load ptr, ptr %m_pModel, align 8
  %mCurrentMesh5 = getelementptr inbounds i8, ptr %2, i64 296
  %3 = load ptr, ptr %mCurrentMesh5, align 8
  %m_uiMaterialIndex = getelementptr inbounds i8, ptr %3, i64 100
  %4 = load i32, ptr %m_uiMaterialIndex, align 4
  %cmp6.not = icmp eq i32 %4, -1
  %cmp7.not = icmp eq i32 %4, %call2
  %or.cond = or i1 %cmp6.not, %cmp7.not
  br i1 %or.cond, label %return, label %land.lhs.true8

land.lhs.true8:                                   ; preds = %if.end
  %m_Faces = getelementptr inbounds i8, ptr %3, i64 32
  %5 = load ptr, ptr %m_Faces, align 8
  %_M_finish.i.i = getelementptr inbounds i8, ptr %3, i64 40
  %6 = load ptr, ptr %_M_finish.i.i, align 8
  %cmp.i.i = icmp ne ptr %5, %6
  br label %return

return:                                           ; preds = %land.lhs.true8, %if.end, %entry
  %retval.0 = phi i1 [ true, %entry ], [ false, %if.end ], [ %cmp.i.i, %land.lhs.true8 ]
  ret i1 %retval.0
}